target datalayout = "e-m:e-p270:32:32-p271:32:32-p272:64:64-i64:64-i128:128-f80:128-n8:16:32:64-S128"
target triple = "x86_64-pc-linux-gnu"

; Function Attrs: nounwind uwtable
define i32 @evutil_inet_pton_scope(i32 noundef %0, ptr noundef %1, ptr noundef %2, ptr noundef %3) #0 {
  %5 = alloca i32, align 4
  %6 = alloca i32, align 4
  %7 = alloca ptr, align 8
  %8 = alloca ptr, align 8
  %9 = alloca ptr, align 8
  %10 = alloca i32, align 4
  %11 = alloca i32, align 4
  %12 = alloca ptr, align 8
  %13 = alloca ptr, align 8
  %14 = alloca ptr, align 8
  %15 = alloca i32, align 4
  store i32 %0, ptr %6, align 4
  store ptr %1, ptr %7, align 8
  store ptr %2, ptr %8, align 8
  store ptr %3, ptr %9, align 8
  call void @llvm.lifetime.start.p0(i64 4, ptr %10) #11
  call void @llvm.lifetime.start.p0(i64 4, ptr %11) #11
  call void @llvm.lifetime.start.p0(i64 8, ptr %12) #11
  call void @llvm.lifetime.start.p0(i64 8, ptr %13) #11
  call void @llvm.lifetime.start.p0(i64 8, ptr %14) #11
  %16 = load ptr, ptr %9, align 8
  store i32 0, ptr %16, align 4
  %17 = load i32, ptr %6, align 4
  %18 = icmp ne i32 %17, 10
  br i1 %18, label %19, label %24

19:                                               ; preds = %4
  %20 = load i32, ptr %6, align 4
  %21 = load ptr, ptr %7, align 8
  %22 = load ptr, ptr %8, align 8
  %23 = call i32 @evutil_inet_pton(i32 noundef %20, ptr noundef %21, ptr noundef %22)
  store i32 %23, ptr %5, align 4
  store i32 1, ptr %15, align 4
  br label %69

24:                                               ; preds = %4
  %25 = load ptr, ptr %7, align 8
  %26 = call ptr @strchr(ptr noundef %25, i32 noundef 37) #13
  store ptr %26, ptr %13, align 8
  %27 = load ptr, ptr %13, align 8
  %28 = icmp eq ptr %27, null
  br i1 %28, label %29, label %34

29:                                               ; preds = %24
  %30 = load i32, ptr %6, align 4
  %31 = load ptr, ptr %7, align 8
  %32 = load ptr, ptr %8, align 8
  %33 = call i32 @evutil_inet_pton(i32 noundef %30, ptr noundef %31, ptr noundef %32)
  store i32 %33, ptr %5, align 4
  store i32 1, ptr %15, align 4
  br label %69

34:                                               ; preds = %24
  %35 = load ptr, ptr %13, align 8
  %36 = getelementptr inbounds i8, ptr %35, i64 1
  %37 = call i32 @if_nametoindex(ptr noundef %36) #11
  store i32 %37, ptr %11, align 4
  %38 = load i32, ptr %11, align 4
  %39 = icmp eq i32 %38, 0
  br i1 %39, label %40, label %52

40:                                               ; preds = %34
  %41 = load ptr, ptr %13, align 8
  %42 = getelementptr inbounds i8, ptr %41, i64 1
  %43 = call i64 @strtoul(ptr noundef %42, ptr noundef %12, i32 noundef 10) #11
  %44 = trunc i64 %43 to i32
  store i32 %44, ptr %11, align 4
  %45 = load ptr, ptr %12, align 8
  %46 = getelementptr inbounds i8, ptr %45, i64 0
  %47 = load i8, ptr %46, align 1
  %48 = sext i8 %47 to i32
  %49 = icmp ne i32 %48, 0
  br i1 %49, label %50, label %51

50:                                               ; preds = %40
  store i32 0, ptr %5, align 4
  store i32 1, ptr %15, align 4
  br label %69

51:                                               ; preds = %40
  br label %52

52:                                               ; preds = %51, %34
  %53 = load i32, ptr %11, align 4
  %54 = load ptr, ptr %9, align 8
  store i32 %53, ptr %54, align 4
  %55 = load ptr, ptr %7, align 8
  %56 = call ptr @event_mm_strdup_(ptr noundef %55)
  store ptr %56, ptr %14, align 8
  %57 = icmp ne ptr %56, null
  br i1 %57, label %59, label %58

58:                                               ; preds = %52
  store i32 -1, ptr %5, align 4
  store i32 1, ptr %15, align 4
  br label %69

59:                                               ; preds = %52
  %60 = load ptr, ptr %14, align 8
  %61 = call ptr @strchr(ptr noundef %60, i32 noundef 37) #13
  store ptr %61, ptr %13, align 8
  %62 = load ptr, ptr %13, align 8
  store i8 0, ptr %62, align 1
  %63 = load i32, ptr %6, align 4
  %64 = load ptr, ptr %14, align 8
  %65 = load ptr, ptr %8, align 8
  %66 = call i32 @evutil_inet_pton(i32 noundef %63, ptr noundef %64, ptr noundef %65)
  store i32 %66, ptr %10, align 4
  %67 = load ptr, ptr %14, align 8
  call void @event_mm_free_(ptr noundef %67)
  %68 = load i32, ptr %10, align 4
  store i32 %68, ptr %5, align 4
  store i32 1, ptr %15, align 4
  br label %69

69:                                               ; preds = %59, %58, %50, %29, %19
  call void @llvm.lifetime.end.p0(i64 8, ptr %14) #11
  call void @llvm.lifetime.end.p0(i64 8, ptr %13) #11
  call void @llvm.lifetime.end.p0(i64 8, ptr %12) #11
  call void @llvm.lifetime.end.p0(i64 4, ptr %11) #11
  call void @llvm.lifetime.end.p0(i64 4, ptr %10) #11
  %70 = load i32, ptr %5, align 4
  ret i32 %70
}