; Function Attrs: nounwind uwtable
define range(i32 -1, 2) i32 @evutil_inet_pton_scope(i32 noundef %0, ptr noundef %1, ptr noundef writeonly captures(none) %2, ptr noundef writeonly captures(none) initializes((0, 4)) %3) local_unnamed_addr #0 {
  %5 = alloca ptr, align 8
  call void @llvm.lifetime.start.p0(i64 8, ptr nonnull %5) #30
  store i32 0, ptr %3, align 4
  %.not = icmp eq i32 %0, 10
  br i1 %.not, label %8, label %6

6:                                                ; preds = %4
  %7 = tail call i32 @evutil_inet_pton(i32 noundef %0, ptr noundef %1, ptr noundef %2)
  br label %27

8:                                                ; preds = %4
  %9 = tail call ptr @strchr(ptr noundef nonnull dereferenceable(1) %1, i32 noundef 37) #32
  %10 = icmp eq ptr %9, null
  br i1 %10, label %11, label %13

11:                                               ; preds = %8
  %12 = tail call i32 @evutil_inet_pton(i32 noundef 10, ptr noundef nonnull %1, ptr noundef %2)
  br label %27

13:                                               ; preds = %8
  %14 = getelementptr inbounds nuw i8, ptr %9, i64 1
  %15 = tail call i32 @if_nametoindex(ptr noundef nonnull %14) #30
  %16 = icmp eq i32 %15, 0
  br i1 %16, label %17, label %22

17:                                               ; preds = %13
  %18 = call i64 @strtoul(ptr noundef nonnull %14, ptr noundef nonnull %5, i32 noundef 10) #30
  %19 = trunc i64 %18 to i32
  %20 = load ptr, ptr %5, align 8
  %21 = load i8, ptr %20, align 1
  %.not28 = icmp eq i8 %21, 0
  br i1 %.not28, label %22, label %27

22:                                               ; preds = %17, %13
  %.023 = phi i32 [ %19, %17 ], [ %15, %13 ]
  store i32 %.023, ptr %3, align 4
  %23 = tail call ptr @event_mm_strdup_(ptr noundef nonnull %1) #30
  %.not29 = icmp eq ptr %23, null
  br i1 %.not29, label %27, label %24

24:                                               ; preds = %22
  %25 = tail call ptr @strchr(ptr noundef nonnull dereferenceable(1) %23, i32 noundef 37) #32
  store i8 0, ptr %25, align 1
  %26 = tail call i32 @evutil_inet_pton(i32 noundef 10, ptr noundef nonnull %23, ptr noundef %2)
  tail call void @event_mm_free_(ptr noundef nonnull %23) #30
  br label %27

27:                                               ; preds = %22, %17, %24, %11, %6
  %.0 = phi i32 [ %7, %6 ], [ %12, %11 ], [ %26, %24 ], [ 0, %17 ], [ -1, %22 ]
  call void @llvm.lifetime.end.p0(i64 8, ptr nonnull %5) #30
  ret i32 %.0
}